target datalayout = "e-m:e-p270:32:32-p271:32:32-p272:64:64-i64:64-i128:128-f80:128-n8:16:32:64-S128"
target triple = "x86_64-pc-linux-gnu"

%"class.std::shared_ptr" = type { %"class.std::__shared_ptr" }
%"class.std::__shared_ptr" = type { ptr, %"class.std::__shared_count" }
%"class.std::__shared_count" = type { ptr }
%"class.open_spiel::spades::SpadesState" = type <{ %"class.open_spiel::State.base", i8, [3 x i8], i32, i32, i32, i32, %"struct.std::array", i8, [3 x i8], %"struct.std::array.9", i32, i32, i32, %"struct.std::array.9", %"struct.std::array.10", [4 x i8], %"class.std::vector.11", %"struct.std::array.16", %"struct.std::array.18", i8, [7 x i8] }>
%"class.open_spiel::State.base" = type <{ ptr, %"class.std::shared_ptr", i32, i32, %"class.std::vector", i32 }>
%"class.std::vector" = type { %"struct.std::_Vector_base" }
%"struct.std::_Vector_base" = type { %"struct.std::_Vector_base<open_spiel::State::PlayerAction, std::allocator<open_spiel::State::PlayerAction>>::_Vector_impl" }
%"struct.std::_Vector_base<open_spiel::State::PlayerAction, std::allocator<open_spiel::State::PlayerAction>>::_Vector_impl" = type { %"struct.std::_Vector_base<open_spiel::State::PlayerAction, std::allocator<open_spiel::State::PlayerAction>>::_Vector_impl_data" }
%"struct.std::_Vector_base<open_spiel::State::PlayerAction, std::allocator<open_spiel::State::PlayerAction>>::_Vector_impl_data" = type { ptr, ptr, ptr }
%"struct.std::array" = type { [2 x i32] }
%"struct.std::array.9" = type { [4 x i32] }
%"struct.std::array.10" = type { [13 x %"class.open_spiel::spades::Trick"] }
%"class.open_spiel::spades::Trick" = type { i32, i32, i32, i32, i32 }
%"class.std::vector.11" = type { %"struct.std::_Vector_base.12" }
%"struct.std::_Vector_base.12" = type { %"struct.std::_Vector_base<double, std::allocator<double>>::_Vector_impl" }
%"struct.std::_Vector_base<double, std::allocator<double>>::_Vector_impl" = type { %"struct.std::_Vector_base<double, std::allocator<double>>::_Vector_impl_data" }
%"struct.std::_Vector_base<double, std::allocator<double>>::_Vector_impl_data" = type { ptr, ptr, ptr }
%"struct.std::array.16" = type { [52 x %"class.absl::debian2::optional"] }
%"class.absl::debian2::optional" = type { %"class.absl::debian2::optional_internal::optional_data" }
%"class.absl::debian2::optional_internal::optional_data" = type { %"class.absl::debian2::optional_internal::optional_data_base" }
%"class.absl::debian2::optional_internal::optional_data_base" = type { %"class.absl::debian2::optional_internal::optional_data_dtor_base" }
%"class.absl::debian2::optional_internal::optional_data_dtor_base" = type { i8, %union.anon.17 }
%union.anon.17 = type { i32 }
%"struct.std::array.18" = type { [56 x i8] }

; Function Attrs: mustprogress nounwind uwtable
define noundef i32 @_ZNK10open_spiel6spades11SpadesState13CurrentPlayerEv(ptr noundef nonnull align 8 dereferenceable(897) %0) unnamed_addr #5 align 2 {
  %2 = alloca i32, align 4
  %3 = alloca ptr, align 8
  store ptr %0, ptr %3, align 8
  %4 = load ptr, ptr %3, align 8
  %5 = getelementptr inbounds nuw %"class.open_spiel::spades::SpadesState", ptr %4, i32 0, i32 13
  %6 = load i32, ptr %5, align 4
  %7 = icmp eq i32 %6, 0
  br i1 %7, label %8, label %9

8:                                                ; preds = %1
  store i32 -1, ptr %2, align 4
  br label %17

9:                                                ; preds = %1
  %10 = getelementptr inbounds nuw %"class.open_spiel::spades::SpadesState", ptr %4, i32 0, i32 13
  %11 = load i32, ptr %10, align 4
  %12 = icmp eq i32 %11, 3
  br i1 %12, label %13, label %14

13:                                               ; preds = %9
  store i32 -4, ptr %2, align 4
  br label %17

14:                                               ; preds = %9
  %15 = getelementptr inbounds nuw %"class.open_spiel::spades::SpadesState", ptr %4, i32 0, i32 12
  %16 = load i32, ptr %15, align 8
  store i32 %16, ptr %2, align 4
  br label %17

17:                                               ; preds = %14, %13, %8
  %18 = load i32, ptr %2, align 4
  ret i32 %18
}